target datalayout = "e-m:e-p270:32:32-p271:32:32-p272:64:64-i64:64-i128:128-f80:128-n8:16:32:64-S128"
target triple = "x86_64-pc-linux-gnu"

%struct.ident_t = type { i32, i32, i32, i32, ptr }

@1 = private unnamed_addr constant %struct.ident_t { i32 0, i32 514, i32 0, i32 22, ptr @0 }, align 8
@_ZTISt9exception = external constant ptr

; Function Attrs: mustprogress nounwind uwtable
define internal void @_ZN3gmxL15scaleVelocitiesILNS_24NumVelocityScalingValuesE1EEEvifPA3_f(i32 noundef %0, float noundef %1, ptr noalias noundef %2) #1 {
  %4 = alloca i32, align 4
  %5 = alloca float, align 4
  %6 = alloca ptr, align 8
  %7 = alloca i32, align 4
  store i32 %0, ptr %4, align 4
  store float %1, ptr %5, align 4
  store ptr %2, ptr %6, align 8
  store i32 0, ptr %7, align 4
  br label %8

8:                                                ; preds = %22, %3
  %9 = load i32, ptr %7, align 4
  %10 = icmp slt i32 %9, 3
  br i1 %10, label %11, label %25

11:                                               ; preds = %8
  %12 = load float, ptr %5, align 4
  %13 = load ptr, ptr %6, align 8
  %14 = load i32, ptr %4, align 4
  %15 = sext i32 %14 to i64
  %16 = getelementptr inbounds [3 x float], ptr %13, i64 %15
  %17 = load i32, ptr %7, align 4
  %18 = sext i32 %17 to i64
  %19 = getelementptr inbounds [3 x float], ptr %16, i64 0, i64 %18
  %20 = load float, ptr %19, align 4
  %21 = fmul float %20, %12
  store float %21, ptr %19, align 4
  br label %22

22:                                               ; preds = %11
  %23 = load i32, ptr %7, align 4
  %24 = add nsw i32 %23, 1
  store i32 %24, ptr %7, align 4
  br label %8, !llvm.loop !70

25:                                               ; preds = %8
  ret void
}

; Function Attrs: norecurse nounwind uwtable
define internal void @_ZN3gmx10PropagatorILNS_16IntegrationStageE4EE3runILNS_24NumVelocityScalingValuesE1ELNS_31ParrinelloRahmanVelocityScalingE0ELS4_1ELNS_24NumPositionScalingValuesE0EEEvv.omp_outlined(ptr noalias noundef %0, ptr noalias noundef %1, ptr noundef nonnull align 4 dereferenceable(4) %2, ptr noundef nonnull align 4 dereferenceable(4) %3, ptr noundef %4, ptr noundef nonnull align 4 dereferenceable(4) %5, ptr noundef nonnull align 8 dereferenceable(8) %6) #9 personality ptr @__gxx_personality_v0 {
  %8 = alloca ptr, align 8
  %9 = alloca ptr, align 8
  %10 = alloca ptr, align 8
  %11 = alloca ptr, align 8
  %12 = alloca ptr, align 8
  %13 = alloca ptr, align 8
  %14 = alloca ptr, align 8
  %15 = alloca i32, align 4
  %16 = alloca i32, align 4
  %17 = alloca i32, align 4
  %18 = alloca i32, align 4
  %19 = alloca i32, align 4
  %20 = alloca i32, align 4
  %21 = alloca i32, align 4
  %22 = alloca i32, align 4
  %23 = alloca i32, align 4
  %24 = alloca i32, align 4
  %25 = alloca i32, align 4
  %26 = alloca ptr, align 8
  %27 = alloca i32, align 4
  %28 = alloca i32, align 4
  %29 = alloca ptr, align 8
  store ptr %0, ptr %8, align 8
  store ptr %1, ptr %9, align 8
  store ptr %2, ptr %10, align 8
  store ptr %3, ptr %11, align 8
  store ptr %4, ptr %12, align 8
  store ptr %5, ptr %13, align 8
  store ptr %6, ptr %14, align 8
  %30 = load ptr, ptr %10, align 8
  %31 = load ptr, ptr %11, align 8
  %32 = load ptr, ptr %13, align 8
  %33 = load ptr, ptr %14, align 8
  %34 = load i32, ptr %30, align 4
  store i32 %34, ptr %16, align 4
  %35 = load i32, ptr %16, align 4
  %36 = sub nsw i32 %35, 0
  %37 = sdiv i32 %36, 1
  %38 = sub nsw i32 %37, 1
  store i32 %38, ptr %17, align 4
  store i32 0, ptr %18, align 4
  %39 = load i32, ptr %16, align 4
  %40 = icmp slt i32 0, %39
  br i1 %40, label %41, label %102

41:                                               ; preds = %7
  store i32 0, ptr %19, align 4
  %42 = load i32, ptr %17, align 4
  store i32 %42, ptr %20, align 4
  store i32 1, ptr %21, align 4
  store i32 0, ptr %22, align 4
  %43 = load ptr, ptr %8, align 8
  %44 = load i32, ptr %43, align 4
  call void @__kmpc_for_static_init_4(ptr @1, i32 %44, i32 34, ptr %22, ptr %19, ptr %20, ptr %21, i32 1, i32 1)
  %45 = load i32, ptr %20, align 4
  %46 = load i32, ptr %17, align 4
  %47 = icmp sgt i32 %45, %46
  br i1 %47, label %48, label %50

48:                                               ; preds = %41
  %49 = load i32, ptr %17, align 4
  br label %52

50:                                               ; preds = %41
  %51 = load i32, ptr %20, align 4
  br label %52

52:                                               ; preds = %50, %48
  %53 = phi i32 [ %49, %48 ], [ %51, %50 ]
  store i32 %53, ptr %20, align 4
  %54 = load i32, ptr %19, align 4
  store i32 %54, ptr %15, align 4
  br label %55

55:                                               ; preds = %95, %52
  %56 = load i32, ptr %15, align 4
  %57 = load i32, ptr %20, align 4
  %58 = icmp sle i32 %56, %57
  br i1 %58, label %59, label %98

59:                                               ; preds = %55
  %60 = load i32, ptr %15, align 4
  %61 = mul nsw i32 %60, 1
  %62 = add nsw i32 0, %61
  store i32 %62, ptr %23, align 4
  store i32 0, ptr %24, align 4
  store i32 0, ptr %25, align 4
  %63 = load i32, ptr %30, align 4
  %64 = load i32, ptr %23, align 4
  %65 = load i32, ptr %31, align 4
  invoke void @_Z18getThreadAtomRangeiiiPiS_(i32 noundef %63, i32 noundef %64, i32 noundef %65, ptr noundef %24, ptr noundef %25)
          to label %66 unwind label %79

66:                                               ; preds = %59
  %67 = load i32, ptr %24, align 4
  store i32 %67, ptr %28, align 4
  br label %68

68:                                               ; preds = %76, %66
  %69 = load i32, ptr %28, align 4
  %70 = load i32, ptr %25, align 4
  %71 = icmp slt i32 %69, %70
  br i1 %71, label %72, label %92

72:                                               ; preds = %68
  %73 = load i32, ptr %28, align 4
  %74 = load float, ptr %32, align 4
  %75 = load ptr, ptr %33, align 8
  call void @_ZN3gmxL15scaleVelocitiesILNS_24NumVelocityScalingValuesE1EEEvifPA3_f(i32 noundef %73, float noundef %74, ptr noundef %75)
  br label %76

76:                                               ; preds = %72
  %77 = load i32, ptr %28, align 4
  %78 = add nsw i32 %77, 1
  store i32 %78, ptr %28, align 4
  br label %68, !llvm.loop !72

79:                                               ; preds = %59
  %80 = landingpad { ptr, i32 }
          catch ptr @_ZTISt9exception
          catch ptr null
  %81 = extractvalue { ptr, i32 } %80, 0
  store ptr %81, ptr %26, align 8
  %82 = extractvalue { ptr, i32 } %80, 1
  store i32 %82, ptr %27, align 4
  br label %83

83:                                               ; preds = %79
  %84 = load i32, ptr %27, align 4
  %85 = call i32 @llvm.eh.typeid.for(ptr @_ZTISt9exception) #10
  %86 = icmp eq i32 %84, %85
  br i1 %86, label %87, label %106

87:                                               ; preds = %83
  %88 = load ptr, ptr %26, align 8
  %89 = call ptr @__cxa_begin_catch(ptr %88) #10
  store ptr %89, ptr %29, align 8
  %90 = load ptr, ptr %29, align 8
  invoke void @_ZN3gmx28processExceptionAsFatalErrorERKSt9exception(ptr noundef nonnull align 8 dereferenceable(8) %90) #20
          to label %91 unwind label %103

91:                                               ; preds = %87
  unreachable

92:                                               ; preds = %68
  br label %93

93:                                               ; preds = %92
  br label %94

94:                                               ; preds = %93
  br label %95

95:                                               ; preds = %94
  %96 = load i32, ptr %15, align 4
  %97 = add nsw i32 %96, 1
  store i32 %97, ptr %15, align 4
  br label %55

98:                                               ; preds = %55
  br label %99

99:                                               ; preds = %98
  %100 = load ptr, ptr %8, align 8
  %101 = load i32, ptr %100, align 4
  call void @__kmpc_for_static_fini(ptr @1, i32 %101)
  br label %102

102:                                              ; preds = %99, %7
  ret void

103:                                              ; preds = %87
  %104 = landingpad { ptr, i32 }
          catch ptr null
  %105 = extractvalue { ptr, i32 } %104, 0
  call void @__clang_call_terminate(ptr %105) #19
  unreachable

106:                                              ; preds = %83
  %107 = load ptr, ptr %26, align 8
  call void @__clang_call_terminate(ptr %107) #19
  unreachable
}