; Function Attrs: norecurse nounwind uwtable
define internal void @_ZN3gmx10PropagatorILNS_16IntegrationStageE4EE3runILNS_24NumVelocityScalingValuesE1ELNS_31ParrinelloRahmanVelocityScalingE0ELS4_1ELNS_24NumPositionScalingValuesE0EEEvv.omp_outlined(ptr noalias nocapture noundef readonly %0, ptr noalias nocapture readnone %1, ptr nocapture noundef nonnull readonly align 4 dereferenceable(4) %2, ptr nocapture noundef nonnull readonly align 4 dereferenceable(4) %3, ptr nocapture readnone %4, ptr nocapture noundef nonnull readonly align 4 dereferenceable(4) %5, ptr nocapture noundef nonnull readonly align 8 dereferenceable(8) %6) #7 personality ptr @__gxx_personality_v0 {
  %8 = alloca i32, align 4
  %9 = alloca i32, align 4
  %10 = alloca i32, align 4
  %11 = alloca i32, align 4
  %12 = alloca i32, align 4
  %13 = alloca i32, align 4
  %14 = load i32, ptr %2, align 4
  %15 = icmp sgt i32 %14, 0
  br i1 %15, label %16, label %49

16:                                               ; preds = %7
  %17 = add nsw i32 %14, -1
  store i32 0, ptr %8, align 4
  store i32 %17, ptr %9, align 4
  store i32 1, ptr %10, align 4
  store i32 0, ptr %11, align 4
  %18 = load i32, ptr %0, align 4
  call void @__kmpc_for_static_init_4(ptr nonnull @1, i32 %18, i32 34, ptr nonnull %11, ptr nonnull %8, ptr nonnull %9, ptr nonnull %10, i32 1, i32 1)
  %19 = load i32, ptr %9, align 4
  %20 = call i32 @llvm.smin.i32(i32 %19, i32 %17)
  store i32 %20, ptr %9, align 4
  %21 = load i32, ptr %8, align 4
  %.not23 = icmp sgt i32 %21, %20
  br i1 %.not23, label %._crit_edge27, label %.lr.ph26

.lr.ph26:                                         ; preds = %16, %._crit_edge
  %.024 = phi i32 [ %47, %._crit_edge ], [ %21, %16 ]
  store i32 0, ptr %12, align 4
  store i32 0, ptr %13, align 4
  %22 = load i32, ptr %2, align 4
  %23 = load i32, ptr %3, align 4
  invoke void @_Z18getThreadAtomRangeiiiPiS_(i32 noundef %22, i32 noundef %.024, i32 noundef %23, ptr noundef nonnull %12, ptr noundef nonnull %13)
          to label %24 unwind label %38

24:                                               ; preds = %.lr.ph26
  %25 = load i32, ptr %12, align 4
  %26 = load i32, ptr %13, align 4
  %27 = icmp slt i32 %25, %26
  br i1 %27, label %.lr.ph.preheader, label %._crit_edge

.lr.ph.preheader:                                 ; preds = %24
  %28 = sext i32 %25 to i64
  br label %.lr.ph

.lr.ph:                                           ; preds = %.lr.ph.preheader, %_ZN3gmxL15scaleVelocitiesILNS_24NumVelocityScalingValuesE1EEEvifPA3_f.exit
  %indvars.iv = phi i64 [ %28, %.lr.ph.preheader ], [ %indvars.iv.next, %_ZN3gmxL15scaleVelocitiesILNS_24NumVelocityScalingValuesE1EEEvifPA3_f.exit ]
  %29 = load float, ptr %5, align 4
  %30 = load ptr, ptr %6, align 8
  br label %31

31:                                               ; preds = %31, %.lr.ph
  %indvars.iv.i = phi i64 [ 0, %.lr.ph ], [ %indvars.iv.next.i, %31 ]
  %32 = getelementptr inbounds [3 x float], ptr %30, i64 %indvars.iv, i64 %indvars.iv.i
  %33 = load float, ptr %32, align 4, !alias.scope !836
  %34 = fmul float %29, %33
  store float %34, ptr %32, align 4, !alias.scope !836
  %indvars.iv.next.i = add nuw nsw i64 %indvars.iv.i, 1
  %exitcond.not.i = icmp eq i64 %indvars.iv.next.i, 3
  br i1 %exitcond.not.i, label %_ZN3gmxL15scaleVelocitiesILNS_24NumVelocityScalingValuesE1EEEvifPA3_f.exit, label %31, !llvm.loop !830

_ZN3gmxL15scaleVelocitiesILNS_24NumVelocityScalingValuesE1EEEvifPA3_f.exit: ; preds = %31
  %indvars.iv.next = add nsw i64 %indvars.iv, 1
  %35 = load i32, ptr %13, align 4
  %36 = sext i32 %35 to i64
  %37 = icmp slt i64 %indvars.iv.next, %36
  br i1 %37, label %.lr.ph, label %._crit_edge, !llvm.loop !839

38:                                               ; preds = %.lr.ph26
  %39 = landingpad { ptr, i32 }
          catch ptr @_ZTISt9exception
          catch ptr null
  %40 = extractvalue { ptr, i32 } %39, 0
  %41 = extractvalue { ptr, i32 } %39, 1
  %42 = call i32 @llvm.eh.typeid.for(ptr nonnull @_ZTISt9exception) #8
  %43 = icmp eq i32 %41, %42
  br i1 %43, label %44, label %53

44:                                               ; preds = %38
  %45 = call ptr @__cxa_begin_catch(ptr %40) #8
  invoke void @_ZN3gmx28processExceptionAsFatalErrorERKSt9exception(ptr noundef nonnull align 8 dereferenceable(8) %45) #22
          to label %46 unwind label %50

46:                                               ; preds = %44
  unreachable

._crit_edge:                                      ; preds = %_ZN3gmxL15scaleVelocitiesILNS_24NumVelocityScalingValuesE1EEEvifPA3_f.exit, %24
  %47 = add nsw i32 %.024, 1
  %48 = load i32, ptr %9, align 4
  %.not.not = icmp slt i32 %.024, %48
  br i1 %.not.not, label %.lr.ph26, label %._crit_edge27

._crit_edge27:                                    ; preds = %._crit_edge, %16
  call void @__kmpc_for_static_fini(ptr nonnull @1, i32 %18)
  br label %49

49:                                               ; preds = %._crit_edge27, %7
  ret void

50:                                               ; preds = %44
  %51 = landingpad { ptr, i32 }
          catch ptr null
  %52 = extractvalue { ptr, i32 } %51, 0
  call void @__clang_call_terminate(ptr %52) #23
  unreachable

53:                                               ; preds = %38
  call void @__clang_call_terminate(ptr %40) #23
  unreachable
}